target datalayout = "e-m:e-p270:32:32-p271:32:32-p272:64:64-i64:64-i128:128-f80:128-n8:16:32:64-S128"
target triple = "x86_64-pc-linux-gnu"

%struct.tjscalingfactor = type { i32, i32 }
%struct.tjregion = type { i32, i32, i32, i32 }
%struct._tjinstance = type { %struct.jpeg_compress_struct, %struct.jpeg_decompress_struct, %struct.my_error_mgr, i32, [200 x i8], i32, i32, i32, i32, i32, i32, i32, i32, i32, i32, i32, i32, i32, i32, i32, i32, i32, i32, i32, i32, i32, i32, i32, %struct.tjscalingfactor, %struct.tjregion, i32, i32 }
%struct.jpeg_compress_struct = type { ptr, ptr, ptr, ptr, i32, i32, ptr, i32, i32, i32, i32, double, i32, i32, i32, ptr, [4 x ptr], [4 x ptr], [4 x ptr], [16 x i8], [16 x i8], [16 x i8], i32, ptr, i32, i32, i32, i32, i32, i32, i32, i32, i32, i8, i8, i8, i16, i16, i32, i32, i32, i32, i32, i32, i32, [4 x ptr], i32, i32, i32, [10 x i32], i32, i32, i32, i32, ptr, ptr, ptr, ptr, ptr, ptr, ptr, ptr, ptr, ptr, i32 }
%struct.jpeg_decompress_struct = type { ptr, ptr, ptr, ptr, i32, i32, ptr, i32, i32, i32, i32, i32, i32, i32, double, i32, i32, i32, i32, i32, i32, i32, i32, i32, i32, i32, i32, i32, i32, i32, i32, i32, i32, ptr, i32, i32, i32, i32, i32, ptr, [4 x ptr], [4 x ptr], [4 x ptr], i32, ptr, i32, i32, [16 x i8], [16 x i8], [16 x i8], i32, i32, i8, i8, i8, i16, i16, i32, i8, i32, ptr, i32, i32, i32, i32, ptr, i32, [4 x ptr], i32, i32, i32, [10 x i32], i32, i32, i32, i32, i32, ptr, ptr, ptr, ptr, ptr, ptr, ptr, ptr, ptr, ptr, ptr }
%struct.my_error_mgr = type { %struct.jpeg_error_mgr, [1 x %struct.__jmp_buf_tag], ptr, i32, i32 }
%struct.jpeg_error_mgr = type { ptr, ptr, ptr, ptr, ptr, i32, %union.anon, i32, i64, ptr, i32, ptr, i32, i32 }
%union.anon = type { [8 x i32], [48 x i8] }
%struct.__jmp_buf_tag = type { [8 x i64], i32, %struct.__sigset_t }
%struct.__sigset_t = type { [16 x i64] }
%struct.jpeg_memory_mgr = type { ptr, ptr, ptr, ptr, ptr, ptr, ptr, ptr, ptr, ptr, ptr, i64, i64 }
%struct.jpeg_component_info = type { i32, i32, i32, i32, i32, i32, i32, i32, i32, i32, i32, i32, i32, i32, i32, i32, i32, i32, i32, ptr, ptr }

@tjMCUWidth = internal constant [7 x i32] [i32 8, i32 16, i32 16, i32 8, i32 8, i32 32, i32 8], align 16
@tjMCUHeight = internal constant [7 x i32] [i32 8, i32 8, i32 16, i32 8, i32 16, i32 8, i32 32], align 16

; Function Attrs: nounwind uwtable
define internal void @setDecodeDefaults(ptr noundef %0, i32 noundef %1) #0 {
  %3 = alloca ptr, align 8
  %4 = alloca i32, align 4
  %5 = alloca i32, align 4
  %6 = alloca ptr, align 8
  store ptr %0, ptr %3, align 8
  store i32 %1, ptr %4, align 4
  %7 = load ptr, ptr %3, align 8
  %8 = getelementptr inbounds %struct._tjinstance, ptr %7, i32 0, i32 1
  %9 = getelementptr inbounds %struct.jpeg_decompress_struct, ptr %8, i32 0, i32 13
  store i32 1, ptr %9, align 8
  %10 = load ptr, ptr %3, align 8
  %11 = getelementptr inbounds %struct._tjinstance, ptr %10, i32 0, i32 1
  %12 = getelementptr inbounds %struct.jpeg_decompress_struct, ptr %11, i32 0, i32 12
  store i32 1, ptr %12, align 4
  %13 = load ptr, ptr %3, align 8
  %14 = getelementptr inbounds %struct._tjinstance, ptr %13, i32 0, i32 9
  %15 = load i32, ptr %14, align 4
  %16 = icmp eq i32 %15, 3
  br i1 %16, label %17, label %27

17:                                               ; preds = %2
  %18 = load ptr, ptr %3, align 8
  %19 = getelementptr inbounds %struct._tjinstance, ptr %18, i32 0, i32 1
  %20 = getelementptr inbounds %struct.jpeg_decompress_struct, ptr %19, i32 0, i32 66
  store i32 1, ptr %20, align 8
  %21 = load ptr, ptr %3, align 8
  %22 = getelementptr inbounds %struct._tjinstance, ptr %21, i32 0, i32 1
  %23 = getelementptr inbounds %struct.jpeg_decompress_struct, ptr %22, i32 0, i32 9
  store i32 1, ptr %23, align 8
  %24 = load ptr, ptr %3, align 8
  %25 = getelementptr inbounds %struct._tjinstance, ptr %24, i32 0, i32 1
  %26 = getelementptr inbounds %struct.jpeg_decompress_struct, ptr %25, i32 0, i32 10
  store i32 1, ptr %26, align 4
  br label %37

27:                                               ; preds = %2
  %28 = load ptr, ptr %3, align 8
  %29 = getelementptr inbounds %struct._tjinstance, ptr %28, i32 0, i32 1
  %30 = getelementptr inbounds %struct.jpeg_decompress_struct, ptr %29, i32 0, i32 66
  store i32 3, ptr %30, align 8
  %31 = load ptr, ptr %3, align 8
  %32 = getelementptr inbounds %struct._tjinstance, ptr %31, i32 0, i32 1
  %33 = getelementptr inbounds %struct.jpeg_decompress_struct, ptr %32, i32 0, i32 9
  store i32 3, ptr %33, align 8
  %34 = load ptr, ptr %3, align 8
  %35 = getelementptr inbounds %struct._tjinstance, ptr %34, i32 0, i32 1
  %36 = getelementptr inbounds %struct.jpeg_decompress_struct, ptr %35, i32 0, i32 10
  store i32 3, ptr %36, align 4
  br label %37

37:                                               ; preds = %27, %17
  %38 = load ptr, ptr %3, align 8
  %39 = getelementptr inbounds %struct._tjinstance, ptr %38, i32 0, i32 1
  %40 = getelementptr inbounds %struct.jpeg_decompress_struct, ptr %39, i32 0, i32 1
  %41 = load ptr, ptr %40, align 8
  %42 = getelementptr inbounds %struct.jpeg_memory_mgr, ptr %41, i32 0, i32 0
  %43 = load ptr, ptr %42, align 8
  %44 = load ptr, ptr %3, align 8
  %45 = getelementptr inbounds %struct._tjinstance, ptr %44, i32 0, i32 1
  %46 = load ptr, ptr %3, align 8
  %47 = getelementptr inbounds %struct._tjinstance, ptr %46, i32 0, i32 1
  %48 = getelementptr inbounds %struct.jpeg_decompress_struct, ptr %47, i32 0, i32 9
  %49 = load i32, ptr %48, align 8
  %50 = sext i32 %49 to i64
  %51 = mul i64 %50, 96
  %52 = call ptr %43(ptr noundef %45, i32 noundef 1, i64 noundef %51)
  %53 = load ptr, ptr %3, align 8
  %54 = getelementptr inbounds %struct._tjinstance, ptr %53, i32 0, i32 1
  %55 = getelementptr inbounds %struct.jpeg_decompress_struct, ptr %54, i32 0, i32 44
  store ptr %52, ptr %55, align 8
  store i32 0, ptr %5, align 4
  br label %56

56:                                               ; preds = %124, %37
  %57 = load i32, ptr %5, align 4
  %58 = load ptr, ptr %3, align 8
  %59 = getelementptr inbounds %struct._tjinstance, ptr %58, i32 0, i32 1
  %60 = getelementptr inbounds %struct.jpeg_decompress_struct, ptr %59, i32 0, i32 9
  %61 = load i32, ptr %60, align 8
  %62 = icmp slt i32 %57, %61
  br i1 %62, label %63, label %127

63:                                               ; preds = %56
  %64 = load ptr, ptr %3, align 8
  %65 = getelementptr inbounds %struct._tjinstance, ptr %64, i32 0, i32 1
  %66 = getelementptr inbounds %struct.jpeg_decompress_struct, ptr %65, i32 0, i32 44
  %67 = load ptr, ptr %66, align 8
  %68 = load i32, ptr %5, align 4
  %69 = sext i32 %68 to i64
  %70 = getelementptr inbounds %struct.jpeg_component_info, ptr %67, i64 %69
  store ptr %70, ptr %6, align 8
  %71 = load i32, ptr %5, align 4
  %72 = icmp eq i32 %71, 0
  br i1 %72, label %73, label %81

73:                                               ; preds = %63
  %74 = load ptr, ptr %3, align 8
  %75 = getelementptr inbounds %struct._tjinstance, ptr %74, i32 0, i32 9
  %76 = load i32, ptr %75, align 4
  %77 = sext i32 %76 to i64
  %78 = getelementptr inbounds [7 x i32], ptr @tjMCUWidth, i64 0, i64 %77
  %79 = load i32, ptr %78, align 4
  %80 = sdiv i32 %79, 8
  br label %82

81:                                               ; preds = %63
  br label %82

82:                                               ; preds = %81, %73
  %83 = phi i32 [ %80, %73 ], [ 1, %81 ]
  %84 = load ptr, ptr %6, align 8
  %85 = getelementptr inbounds %struct.jpeg_component_info, ptr %84, i32 0, i32 2
  store i32 %83, ptr %85, align 8
  %86 = load i32, ptr %5, align 4
  %87 = icmp eq i32 %86, 0
  br i1 %87, label %88, label %96

88:                                               ; preds = %82
  %89 = load ptr, ptr %3, align 8
  %90 = getelementptr inbounds %struct._tjinstance, ptr %89, i32 0, i32 9
  %91 = load i32, ptr %90, align 4
  %92 = sext i32 %91 to i64
  %93 = getelementptr inbounds [7 x i32], ptr @tjMCUHeight, i64 0, i64 %92
  %94 = load i32, ptr %93, align 4
  %95 = sdiv i32 %94, 8
  br label %97

96:                                               ; preds = %82
  br label %97

97:                                               ; preds = %96, %88
  %98 = phi i32 [ %95, %88 ], [ 1, %96 ]
  %99 = load ptr, ptr %6, align 8
  %100 = getelementptr inbounds %struct.jpeg_component_info, ptr %99, i32 0, i32 3
  store i32 %98, ptr %100, align 4
  %101 = load i32, ptr %5, align 4
  %102 = load ptr, ptr %6, align 8
  %103 = getelementptr inbounds %struct.jpeg_component_info, ptr %102, i32 0, i32 1
  store i32 %101, ptr %103, align 4
  %104 = load i32, ptr %5, align 4
  %105 = add nsw i32 %104, 1
  %106 = load ptr, ptr %6, align 8
  %107 = getelementptr inbounds %struct.jpeg_component_info, ptr %106, i32 0, i32 0
  store i32 %105, ptr %107, align 8
  %108 = load i32, ptr %5, align 4
  %109 = icmp eq i32 %108, 0
  %110 = select i1 %109, i32 0, i32 1
  %111 = load ptr, ptr %6, align 8
  %112 = getelementptr inbounds %struct.jpeg_component_info, ptr %111, i32 0, i32 6
  store i32 %110, ptr %112, align 8
  %113 = load ptr, ptr %6, align 8
  %114 = getelementptr inbounds %struct.jpeg_component_info, ptr %113, i32 0, i32 5
  store i32 %110, ptr %114, align 4
  %115 = load ptr, ptr %6, align 8
  %116 = getelementptr inbounds %struct.jpeg_component_info, ptr %115, i32 0, i32 4
  store i32 %110, ptr %116, align 8
  %117 = load ptr, ptr %6, align 8
  %118 = load ptr, ptr %3, align 8
  %119 = getelementptr inbounds %struct._tjinstance, ptr %118, i32 0, i32 1
  %120 = getelementptr inbounds %struct.jpeg_decompress_struct, ptr %119, i32 0, i32 67
  %121 = load i32, ptr %5, align 4
  %122 = sext i32 %121 to i64
  %123 = getelementptr inbounds [4 x ptr], ptr %120, i64 0, i64 %122
  store ptr %117, ptr %123, align 8
  br label %124

124:                                              ; preds = %97
  %125 = load i32, ptr %5, align 4
  %126 = add nsw i32 %125, 1
  store i32 %126, ptr %5, align 4
  br label %56, !llvm.loop !61

127:                                              ; preds = %56
  %128 = load ptr, ptr %3, align 8
  %129 = getelementptr inbounds %struct._tjinstance, ptr %128, i32 0, i32 1
  %130 = getelementptr inbounds %struct.jpeg_decompress_struct, ptr %129, i32 0, i32 43
  store i32 8, ptr %130, align 8
  store i32 0, ptr %5, align 4
  br label %131

131:                                              ; preds = %154, %127
  %132 = load i32, ptr %5, align 4
  %133 = icmp slt i32 %132, 2
  br i1 %133, label %134, label %157

134:                                              ; preds = %131
  %135 = load ptr, ptr %3, align 8
  %136 = getelementptr inbounds %struct._tjinstance, ptr %135, i32 0, i32 1
  %137 = getelementptr inbounds %struct.jpeg_decompress_struct, ptr %136, i32 0, i32 40
  %138 = load i32, ptr %5, align 4
  %139 = sext i32 %138 to i64
  %140 = getelementptr inbounds [4 x ptr], ptr %137, i64 0, i64 %139
  %141 = load ptr, ptr %140, align 8
  %142 = icmp eq ptr %141, null
  br i1 %142, label %143, label %153

143:                                              ; preds = %134
  %144 = load ptr, ptr %3, align 8
  %145 = getelementptr inbounds %struct._tjinstance, ptr %144, i32 0, i32 1
  %146 = call ptr @jpeg_alloc_quant_table(ptr noundef %145)
  %147 = load ptr, ptr %3, align 8
  %148 = getelementptr inbounds %struct._tjinstance, ptr %147, i32 0, i32 1
  %149 = getelementptr inbounds %struct.jpeg_decompress_struct, ptr %148, i32 0, i32 40
  %150 = load i32, ptr %5, align 4
  %151 = sext i32 %150 to i64
  %152 = getelementptr inbounds [4 x ptr], ptr %149, i64 0, i64 %151
  store ptr %146, ptr %152, align 8
  br label %153

153:                                              ; preds = %143, %134
  br label %154

154:                                              ; preds = %153
  %155 = load i32, ptr %5, align 4
  %156 = add nsw i32 %155, 1
  store i32 %156, ptr %5, align 4
  br label %131, !llvm.loop !62

157:                                              ; preds = %131
  %158 = load ptr, ptr %3, align 8
  %159 = getelementptr inbounds %struct._tjinstance, ptr %158, i32 0, i32 30
  %160 = load i32, ptr %159, align 8
  %161 = sext i32 %160 to i64
  %162 = mul nsw i64 %161, 1048576
  %163 = load ptr, ptr %3, align 8
  %164 = getelementptr inbounds %struct._tjinstance, ptr %163, i32 0, i32 1
  %165 = getelementptr inbounds %struct.jpeg_decompress_struct, ptr %164, i32 0, i32 1
  %166 = load ptr, ptr %165, align 8
  %167 = getelementptr inbounds %struct.jpeg_memory_mgr, ptr %166, i32 0, i32 11
  store i64 %162, ptr %167, align 8
  ret void
}