; Function Attrs: nounwind uwtable
define internal fastcc void @setDecodeDefaults(ptr noundef %0) unnamed_addr #0 {
  %2 = getelementptr inbounds i8, ptr %0, i64 520
  %3 = getelementptr inbounds i8, ptr %0, i64 592
  store i32 1, ptr %3, align 8
  %4 = getelementptr inbounds i8, ptr %0, i64 588
  store i32 1, ptr %4, align 4
  %5 = getelementptr inbounds i8, ptr %0, i64 1756
  %6 = load i32, ptr %5, align 4
  %7 = icmp eq i32 %6, 3
  %spec.select = select i1 %7, i32 1, i32 3
  %8 = getelementptr inbounds i8, ptr %0, i64 952
  store i32 %spec.select, ptr %8, align 8
  %9 = getelementptr inbounds i8, ptr %0, i64 576
  store i32 %spec.select, ptr %9, align 8
  %10 = getelementptr inbounds i8, ptr %0, i64 580
  store i32 %spec.select, ptr %10, align 4
  %11 = getelementptr inbounds i8, ptr %0, i64 528
  %12 = load ptr, ptr %11, align 8
  %13 = load ptr, ptr %12, align 8
  %narrow = mul nuw nsw i32 %spec.select, 96
  %14 = zext nneg i32 %narrow to i64
  %15 = tail call ptr %13(ptr noundef nonnull %2, i32 noundef 1, i64 noundef %14) #26
  %16 = getelementptr inbounds i8, ptr %0, i64 824
  store ptr %15, ptr %16, align 8
  %17 = load i32, ptr %9, align 8
  %18 = icmp sgt i32 %17, 0
  br i1 %18, label %.lr.ph, label %._crit_edge

.lr.ph:                                           ; preds = %1
  %19 = getelementptr inbounds i8, ptr %0, i64 960
  br label %20

20:                                               ; preds = %.lr.ph, %37
  %indvars.iv = phi i64 [ 0, %.lr.ph ], [ %indvars.iv.next, %37 ]
  %21 = load ptr, ptr %16, align 8
  %22 = getelementptr inbounds %struct.jpeg_component_info, ptr %21, i64 %indvars.iv
  %23 = icmp ne i64 %indvars.iv, 0
  br i1 %23, label %.critedge, label %24

24:                                               ; preds = %20
  %25 = load i32, ptr %5, align 4
  %26 = sext i32 %25 to i64
  %27 = getelementptr inbounds [7 x i32], ptr @tjMCUWidth, i64 0, i64 %26
  %28 = load i32, ptr %27, align 4
  %29 = sdiv i32 %28, 8
  %30 = getelementptr inbounds i8, ptr %22, i64 8
  store i32 %29, ptr %30, align 8
  %31 = load i32, ptr %5, align 4
  %32 = sext i32 %31 to i64
  %33 = getelementptr inbounds [7 x i32], ptr @tjMCUHeight, i64 0, i64 %32
  %34 = load i32, ptr %33, align 4
  %35 = sdiv i32 %34, 8
  br label %37

.critedge:                                        ; preds = %20
  %36 = getelementptr inbounds i8, ptr %22, i64 8
  store i32 1, ptr %36, align 8
  br label %37

37:                                               ; preds = %.critedge, %24
  %38 = phi i32 [ %35, %24 ], [ 1, %.critedge ]
  %39 = getelementptr inbounds i8, ptr %22, i64 12
  store i32 %38, ptr %39, align 4
  %40 = getelementptr inbounds i8, ptr %22, i64 4
  %41 = trunc nuw nsw i64 %indvars.iv to i32
  store i32 %41, ptr %40, align 4
  %indvars.iv.next = add nuw nsw i64 %indvars.iv, 1
  %42 = trunc nuw nsw i64 %indvars.iv.next to i32
  store i32 %42, ptr %22, align 8
  %43 = zext i1 %23 to i32
  %44 = getelementptr inbounds i8, ptr %22, i64 24
  store i32 %43, ptr %44, align 8
  %45 = getelementptr inbounds i8, ptr %22, i64 20
  store i32 %43, ptr %45, align 4
  %46 = getelementptr inbounds i8, ptr %22, i64 16
  store i32 %43, ptr %46, align 8
  %47 = getelementptr inbounds [4 x ptr], ptr %19, i64 0, i64 %indvars.iv
  store ptr %22, ptr %47, align 8
  %48 = load i32, ptr %9, align 8
  %49 = sext i32 %48 to i64
  %50 = icmp slt i64 %indvars.iv.next, %49
  br i1 %50, label %20, label %._crit_edge, !llvm.loop !58

._crit_edge:                                      ; preds = %37, %1
  %51 = getelementptr inbounds i8, ptr %0, i64 816
  store i32 8, ptr %51, align 8
  %52 = getelementptr inbounds i8, ptr %0, i64 720
  br label %53

53:                                               ; preds = %._crit_edge, %60
  %54 = phi i1 [ true, %._crit_edge ], [ false, %60 ]
  %indvars.iv47 = phi i64 [ 0, %._crit_edge ], [ 1, %60 ]
  %55 = getelementptr inbounds [4 x ptr], ptr %52, i64 0, i64 %indvars.iv47
  %56 = load ptr, ptr %55, align 8
  %57 = icmp eq ptr %56, null
  br i1 %57, label %58, label %60

58:                                               ; preds = %53
  %59 = tail call ptr @jpeg_alloc_quant_table(ptr noundef nonnull %2) #26
  store ptr %59, ptr %55, align 8
  br label %60

60:                                               ; preds = %53, %58
  br i1 %54, label %53, label %61, !llvm.loop !59

61:                                               ; preds = %60
  %62 = getelementptr inbounds i8, ptr %0, i64 1856
  %63 = load i32, ptr %62, align 8
  %64 = sext i32 %63 to i64
  %65 = shl nsw i64 %64, 20
  %66 = load ptr, ptr %11, align 8
  %67 = getelementptr inbounds i8, ptr %66, i64 88
  store i64 %65, ptr %67, align 8
  ret void
}